target datalayout = "e-m:e-p270:32:32-p271:32:32-p272:64:64-i64:64-i128:128-f80:128-n8:16:32:64-S128"
target triple = "x86_64-pc-linux-gnu"

%class.LogTagSet = type { ptr, i64, [5 x i32], [4 x i8], %class.LogOutputList, %class.LogDecorators, ptr }
%class.LogOutputList = type <{ [6 x ptr], i32, [4 x i8] }>
%class.LogDecorators = type { i32 }
%class.LogImpl = type { i8 }
%class.ResourceMark = type { %class.ResourceMarkImpl }
%class.ResourceMarkImpl = type { ptr, %"class.ResourceArea::SavedState" }
%"class.ResourceArea::SavedState" = type { ptr, ptr, ptr, i64 }
%class.Thread = type { %class.ThreadShadow.base, i64, [43 x i64], ptr, ptr, i32, ptr, i64, i64, %class.ThreadLocalAllocBuffer, i64, %class.ThreadHeapSampler, %class.ThreadStatisticalInfo, %class.JfrThreadLocal, ptr, ptr, ptr, ptr, ptr, ptr, i64, i32, i32, ptr, i32, i32, i32, i32, i8, ptr }
%class.ThreadShadow.base = type <{ ptr, ptr, ptr, i32 }>
%class.ThreadLocalAllocBuffer = type <{ ptr, ptr, ptr, ptr, ptr, i64, i64, i64, i64, i32, i32, i32, i32, i64, %class.AdaptiveWeightedAverage, [4 x i8] }>
%class.AdaptiveWeightedAverage = type { float, i32, i32, i8, float }
%class.ThreadHeapSampler = type { i64 }
%class.ThreadStatisticalInfo = type { i64, i64 }
%class.JfrThreadLocal = type <{ ptr, ptr, ptr, ptr, ptr, ptr, ptr, ptr, ptr, ptr, %class.RefCountHandle, i64, i64, i64, i64, i64, i64, i64, i64, i64, i64, i64, i32, i32, i32, i16, i8, i8, i8, i8, i8, [5 x i8] }>
%class.RefCountHandle = type { ptr }
%class.Arena = type { i8, i8, i64, ptr, ptr, ptr, ptr }
%class.Chunk = type { ptr, i64 }

@_ZN8GCLocker15_jni_lock_countE = hidden global i32 0, align 4
@.str = private unnamed_addr constant [26 x i8] c"%s Thread \22%s\22 %d locked.\00", align 1
@_ZN16LogTagSetMappingILN6LogTag4typeE49ELS1_67ELS1_0ELS1_0ELS1_0ELS1_0EE7_tagsetE = linkonce_odr hidden global %class.LogTagSet zeroinitializer, comdat, align 8
@_ZN6Thread12_thr_currentE = external thread_local global ptr, align 8

; Function Attrs: mustprogress nounwind uwtable
define linkonce_odr hidden noundef i64 @_ZNK5Arena13size_in_bytesEv(ptr noundef nonnull align 8 dereferenceable(48) %0) #1 comdat align 2 {
  %2 = alloca ptr, align 8
  store ptr %0, ptr %2, align 8
  %3 = load ptr, ptr %2, align 8
  %4 = getelementptr inbounds %class.Arena, ptr %3, i32 0, i32 2
  %5 = load i64, ptr %4, align 8
  ret i64 %5
}

; Function Attrs: mustprogress nounwind uwtable
define linkonce_odr hidden noundef ptr @_ZNK5Chunk4nextEv(ptr noundef nonnull align 8 dereferenceable(16) %0) #1 comdat align 2 {
  %2 = alloca ptr, align 8
  store ptr %0, ptr %2, align 8
  %3 = load ptr, ptr %2, align 8
  %4 = getelementptr inbounds %class.Chunk, ptr %3, i32 0, i32 0
  %5 = load ptr, ptr %4, align 8
  ret ptr %5
}

; Function Attrs: mustprogress nounwind uwtable
define linkonce_odr hidden void @_ZN12ResourceArea14activate_stateERKNS_10SavedStateE(ptr noundef nonnull align 8 dereferenceable(48) %0, ptr noundef nonnull align 8 dereferenceable(32) %1) #1 comdat align 2 {
  %3 = alloca ptr, align 8
  %4 = alloca ptr, align 8
  store ptr %0, ptr %3, align 8
  store ptr %1, ptr %4, align 8
  ret void
}

; Function Attrs: mustprogress nounwind uwtable
define linkonce_odr hidden void @_ZN12ResourceArea10SavedStateC2EPS_(ptr noundef nonnull align 8 dereferenceable(32) %0, ptr noundef %1) unnamed_addr #1 comdat align 2 {
  %3 = alloca ptr, align 8
  %4 = alloca ptr, align 8
  store ptr %0, ptr %3, align 8
  store ptr %1, ptr %4, align 8
  %5 = load ptr, ptr %3, align 8
  %6 = getelementptr inbounds %"class.ResourceArea::SavedState", ptr %5, i32 0, i32 0
  %7 = load ptr, ptr %4, align 8
  %8 = getelementptr inbounds %class.Arena, ptr %7, i32 0, i32 4
  %9 = load ptr, ptr %8, align 8
  store ptr %9, ptr %6, align 8
  %10 = getelementptr inbounds %"class.ResourceArea::SavedState", ptr %5, i32 0, i32 1
  %11 = load ptr, ptr %4, align 8
  %12 = getelementptr inbounds %class.Arena, ptr %11, i32 0, i32 5
  %13 = load ptr, ptr %12, align 8
  store ptr %13, ptr %10, align 8
  %14 = getelementptr inbounds %"class.ResourceArea::SavedState", ptr %5, i32 0, i32 2
  %15 = load ptr, ptr %4, align 8
  %16 = getelementptr inbounds %class.Arena, ptr %15, i32 0, i32 6
  %17 = load ptr, ptr %16, align 8
  store ptr %17, ptr %14, align 8
  %18 = getelementptr inbounds %"class.ResourceArea::SavedState", ptr %5, i32 0, i32 3
  %19 = load ptr, ptr %4, align 8
  %20 = call noundef i64 @_ZNK5Arena13size_in_bytesEv(ptr noundef nonnull align 8 dereferenceable(48) %19)
  store i64 %20, ptr %18, align 8
  ret void
}

; Function Attrs: mustprogress nounwind uwtable
define linkonce_odr hidden void @_ZN12ResourceArea11rollback_toERKNS_10SavedStateE(ptr noundef nonnull align 8 dereferenceable(48) %0, ptr noundef nonnull align 8 dereferenceable(32) %1) #1 comdat align 2 {
  %3 = alloca ptr, align 8
  %4 = alloca ptr, align 8
  %5 = alloca ptr, align 8
  store ptr %0, ptr %3, align 8
  store ptr %1, ptr %4, align 8
  %6 = load ptr, ptr %3, align 8
  %7 = load ptr, ptr %4, align 8
  %8 = getelementptr inbounds %"class.ResourceArea::SavedState", ptr %7, i32 0, i32 0
  %9 = load ptr, ptr %8, align 8
  %10 = call noundef ptr @_ZNK5Chunk4nextEv(ptr noundef nonnull align 8 dereferenceable(16) %9)
  %11 = icmp ne ptr %10, null
  br i1 %11, label %12, label %19

12:                                               ; preds = %2
  %13 = load ptr, ptr %4, align 8
  %14 = getelementptr inbounds %"class.ResourceArea::SavedState", ptr %13, i32 0, i32 3
  %15 = load i64, ptr %14, align 8
  call void @_ZN5Arena17set_size_in_bytesEm(ptr noundef nonnull align 8 dereferenceable(48) %6, i64 noundef %15)
  %16 = load ptr, ptr %4, align 8
  %17 = getelementptr inbounds %"class.ResourceArea::SavedState", ptr %16, i32 0, i32 0
  %18 = load ptr, ptr %17, align 8
  call void @_ZN5Chunk9next_chopEPS_(ptr noundef %18)
  br label %20

19:                                               ; preds = %2
  br label %20

20:                                               ; preds = %19, %12
  %21 = getelementptr inbounds %class.Arena, ptr %6, i32 0, i32 5
  %22 = load ptr, ptr %21, align 8
  %23 = load ptr, ptr %4, align 8
  %24 = getelementptr inbounds %"class.ResourceArea::SavedState", ptr %23, i32 0, i32 1
  %25 = load ptr, ptr %24, align 8
  %26 = icmp ne ptr %22, %25
  br i1 %26, label %27, label %42

27:                                               ; preds = %20
  %28 = getelementptr inbounds %class.Arena, ptr %6, i32 0, i32 5
  %29 = load ptr, ptr %28, align 8
  store ptr %29, ptr %5, align 8
  %30 = load ptr, ptr %4, align 8
  %31 = getelementptr inbounds %"class.ResourceArea::SavedState", ptr %30, i32 0, i32 0
  %32 = load ptr, ptr %31, align 8
  %33 = getelementptr inbounds %class.Arena, ptr %6, i32 0, i32 4
  store ptr %32, ptr %33, align 8
  %34 = load ptr, ptr %4, align 8
  %35 = getelementptr inbounds %"class.ResourceArea::SavedState", ptr %34, i32 0, i32 1
  %36 = load ptr, ptr %35, align 8
  %37 = getelementptr inbounds %class.Arena, ptr %6, i32 0, i32 5
  store ptr %36, ptr %37, align 8
  %38 = load ptr, ptr %4, align 8
  %39 = getelementptr inbounds %"class.ResourceArea::SavedState", ptr %38, i32 0, i32 2
  %40 = load ptr, ptr %39, align 8
  %41 = getelementptr inbounds %class.Arena, ptr %6, i32 0, i32 6
  store ptr %40, ptr %41, align 8
  br label %43

42:                                               ; preds = %20
  br label %43

43:                                               ; preds = %42, %27
  ret void
}

; Function Attrs: mustprogress nounwind uwtable
define linkonce_odr hidden void @_ZN16ResourceMarkImplC2EP12ResourceArea(ptr noundef nonnull align 8 dereferenceable(40) %0, ptr noundef %1) unnamed_addr #1 comdat align 2 {
  %3 = alloca ptr, align 8
  %4 = alloca ptr, align 8
  store ptr %0, ptr %3, align 8
  store ptr %1, ptr %4, align 8
  %5 = load ptr, ptr %3, align 8
  %6 = getelementptr inbounds %class.ResourceMarkImpl, ptr %5, i32 0, i32 0
  %7 = load ptr, ptr %4, align 8
  store ptr %7, ptr %6, align 8
  %8 = getelementptr inbounds %class.ResourceMarkImpl, ptr %5, i32 0, i32 1
  %9 = load ptr, ptr %4, align 8
  call void @_ZN12ResourceArea10SavedStateC2EPS_(ptr noundef nonnull align 8 dereferenceable(32) %8, ptr noundef %9)
  %10 = getelementptr inbounds %class.ResourceMarkImpl, ptr %5, i32 0, i32 0
  %11 = load ptr, ptr %10, align 8
  %12 = getelementptr inbounds %class.ResourceMarkImpl, ptr %5, i32 0, i32 1
  call void @_ZN12ResourceArea14activate_stateERKNS_10SavedStateE(ptr noundef nonnull align 8 dereferenceable(48) %11, ptr noundef nonnull align 8 dereferenceable(32) %12)
  ret void
}

; Function Attrs: mustprogress nounwind uwtable
define linkonce_odr hidden noundef zeroext i1 @_ZNK13LogOutputList8is_levelEN8LogLevel4typeE(ptr noundef nonnull align 8 dereferenceable(52) %0, i32 noundef %1) #1 comdat align 2 {
  %3 = alloca ptr, align 8
  %4 = alloca i32, align 4
  store ptr %0, ptr %3, align 8
  store i32 %1, ptr %4, align 4
  %5 = load ptr, ptr %3, align 8
  %6 = getelementptr inbounds %class.LogOutputList, ptr %5, i32 0, i32 0
  %7 = load i32, ptr %4, align 4
  %8 = zext i32 %7 to i64
  %9 = getelementptr inbounds [6 x ptr], ptr %6, i64 0, i64 %8
  %10 = load volatile ptr, ptr %9, align 8
  %11 = icmp ne ptr %10, null
  ret i1 %11
}

; Function Attrs: mustprogress nounwind uwtable
define linkonce_odr hidden void @_ZN12ResourceArea16deactivate_stateERKNS_10SavedStateE(ptr noundef nonnull align 8 dereferenceable(48) %0, ptr noundef nonnull align 8 dereferenceable(32) %1) #1 comdat align 2 {
  %3 = alloca ptr, align 8
  %4 = alloca ptr, align 8
  store ptr %0, ptr %3, align 8
  store ptr %1, ptr %4, align 8
  ret void
}

; Function Attrs: mustprogress nounwind uwtable
define linkonce_odr hidden void @_ZNK16ResourceMarkImpl13reset_to_markEv(ptr noundef nonnull align 8 dereferenceable(40) %0) #1 comdat align 2 {
  %2 = alloca ptr, align 8
  store ptr %0, ptr %2, align 8
  %3 = load ptr, ptr %2, align 8
  %4 = getelementptr inbounds %class.ResourceMarkImpl, ptr %3, i32 0, i32 0
  %5 = load ptr, ptr %4, align 8
  %6 = getelementptr inbounds %class.ResourceMarkImpl, ptr %3, i32 0, i32 1
  call void @_ZN12ResourceArea11rollback_toERKNS_10SavedStateE(ptr noundef nonnull align 8 dereferenceable(48) %5, ptr noundef nonnull align 8 dereferenceable(32) %6)
  ret void
}

; Function Attrs: mustprogress nounwind uwtable
define linkonce_odr hidden void @_ZN12ResourceMarkC2EP12ResourceAreaP6Thread(ptr noundef nonnull align 8 dereferenceable(40) %0, ptr noundef %1, ptr noundef %2) unnamed_addr #1 comdat align 2 {
  %4 = alloca ptr, align 8
  %5 = alloca ptr, align 8
  %6 = alloca ptr, align 8
  store ptr %0, ptr %4, align 8
  store ptr %1, ptr %5, align 8
  store ptr %2, ptr %6, align 8
  %7 = load ptr, ptr %4, align 8
  %8 = getelementptr inbounds %class.ResourceMark, ptr %7, i32 0, i32 0
  %9 = load ptr, ptr %5, align 8
  call void @_ZN16ResourceMarkImplC2EP12ResourceArea(ptr noundef nonnull align 8 dereferenceable(40) %8, ptr noundef %9)
  ret void
}

; Function Attrs: mustprogress nounwind uwtable
define linkonce_odr hidden noundef ptr @_ZNK6Thread13resource_areaEv(ptr noundef nonnull align 8 dereferenceable(888) %0) #1 comdat align 2 {
  %2 = alloca ptr, align 8
  store ptr %0, ptr %2, align 8
  %3 = load ptr, ptr %2, align 8
  %4 = getelementptr inbounds %class.Thread, ptr %3, i32 0, i32 16
  %5 = load ptr, ptr %4, align 8
  ret ptr %5
}

; Function Attrs: mustprogress nounwind uwtable
define linkonce_odr hidden noundef zeroext i1 @_ZNK9LogTagSet8is_levelEN8LogLevel4typeE(ptr noundef nonnull align 8 dereferenceable(112) %0, i32 noundef %1) #1 comdat align 2 {
  %3 = alloca ptr, align 8
  %4 = alloca i32, align 4
  store ptr %0, ptr %3, align 8
  store i32 %1, ptr %4, align 4
  %5 = load ptr, ptr %3, align 8
  %6 = getelementptr inbounds %class.LogTagSet, ptr %5, i32 0, i32 4
  %7 = load i32, ptr %4, align 4
  %8 = call noundef zeroext i1 @_ZNK13LogOutputList8is_levelEN8LogLevel4typeE(ptr noundef nonnull align 8 dereferenceable(52) %6, i32 noundef %7)
  ret i1 %8
}

; Function Attrs: mustprogress nounwind uwtable
define linkonce_odr hidden noundef nonnull align 8 dereferenceable(112) ptr @_ZN16LogTagSetMappingILN6LogTag4typeE49ELS1_67ELS1_0ELS1_0ELS1_0ELS1_0EE6tagsetEv() #1 comdat align 2 {
  ret ptr @_ZN16LogTagSetMappingILN6LogTag4typeE49ELS1_67ELS1_0ELS1_0ELS1_0ELS1_0EE7_tagsetE
}

; Function Attrs: mustprogress nounwind uwtable
define linkonce_odr hidden void @_ZN16ResourceMarkImplD2Ev(ptr noundef nonnull align 8 dereferenceable(40) %0) unnamed_addr #1 comdat align 2 {
  %2 = alloca ptr, align 8
  store ptr %0, ptr %2, align 8
  %3 = load ptr, ptr %2, align 8
  call void @_ZNK16ResourceMarkImpl13reset_to_markEv(ptr noundef nonnull align 8 dereferenceable(40) %3)
  %4 = getelementptr inbounds %class.ResourceMarkImpl, ptr %3, i32 0, i32 0
  %5 = load ptr, ptr %4, align 8
  %6 = getelementptr inbounds %class.ResourceMarkImpl, ptr %3, i32 0, i32 1
  call void @_ZN12ResourceArea16deactivate_stateERKNS_10SavedStateE(ptr noundef nonnull align 8 dereferenceable(48) %5, ptr noundef nonnull align 8 dereferenceable(32) %6)
  ret void
}

; Function Attrs: mustprogress nounwind uwtable
define linkonce_odr hidden noundef ptr @_ZN6Thread15current_or_nullEv() #1 comdat align 2 {
  %1 = call align 8 ptr @llvm.threadlocal.address.p0(ptr align 8 @_ZN6Thread12_thr_currentE)
  %2 = load ptr, ptr %1, align 8
  ret ptr %2
}

; Function Attrs: mustprogress nounwind uwtable
define linkonce_odr hidden void @_ZN12ResourceMarkC2EP6Thread(ptr noundef nonnull align 8 dereferenceable(40) %0, ptr noundef %1) unnamed_addr #1 comdat align 2 {
  %3 = alloca ptr, align 8
  %4 = alloca ptr, align 8
  store ptr %0, ptr %3, align 8
  store ptr %1, ptr %4, align 8
  %5 = load ptr, ptr %3, align 8
  %6 = load ptr, ptr %4, align 8
  %7 = call noundef ptr @_ZNK6Thread13resource_areaEv(ptr noundef nonnull align 8 dereferenceable(888) %6)
  %8 = load ptr, ptr %4, align 8
  call void @_ZN12ResourceMarkC2EP12ResourceAreaP6Thread(ptr noundef nonnull align 8 dereferenceable(40) %5, ptr noundef %7, ptr noundef %8)
  ret void
}

; Function Attrs: mustprogress nounwind uwtable
define linkonce_odr hidden noundef zeroext i1 @_ZN7LogImplILN6LogTag4typeE49ELS1_67ELS1_0ELS1_0ELS1_0ELS1_0EE8is_levelEN8LogLevel4typeE(i32 noundef %0) #1 comdat align 2 {
  %2 = alloca i32, align 4
  store i32 %0, ptr %2, align 4
  %3 = call noundef nonnull align 8 dereferenceable(112) ptr @_ZN16LogTagSetMappingILN6LogTag4typeE49ELS1_67ELS1_0ELS1_0ELS1_0ELS1_0EE6tagsetEv()
  %4 = load i32, ptr %2, align 4
  %5 = call noundef zeroext i1 @_ZNK9LogTagSet8is_levelEN8LogLevel4typeE(ptr noundef nonnull align 8 dereferenceable(112) %3, i32 noundef %4)
  ret i1 %5
}

; Function Attrs: mustprogress nounwind uwtable
define linkonce_odr hidden void @_ZN12ResourceMarkD2Ev(ptr noundef nonnull align 8 dereferenceable(40) %0) unnamed_addr #1 comdat align 2 {
  %2 = alloca ptr, align 8
  store ptr %0, ptr %2, align 8
  %3 = load ptr, ptr %2, align 8
  %4 = getelementptr inbounds %class.ResourceMark, ptr %3, i32 0, i32 0
  call void @_ZN16ResourceMarkImplD2Ev(ptr noundef nonnull align 8 dereferenceable(40) %4) #5
  ret void
}

; Function Attrs: mustprogress nounwind uwtable
define linkonce_odr hidden noundef ptr @_ZN6Thread7currentEv() #1 comdat align 2 {
  %1 = alloca ptr, align 8
  %2 = call noundef ptr @_ZN6Thread15current_or_nullEv()
  store ptr %2, ptr %1, align 8
  %3 = load ptr, ptr %1, align 8
  ret ptr %3
}

; Function Attrs: mustprogress nounwind uwtable
define linkonce_odr hidden void @_ZN12ResourceMarkC2Ev(ptr noundef nonnull align 8 dereferenceable(40) %0) unnamed_addr #1 comdat align 2 {
  %2 = alloca ptr, align 8
  store ptr %0, ptr %2, align 8
  %3 = load ptr, ptr %2, align 8
  %4 = call noundef ptr @_ZN6Thread7currentEv()
  call void @_ZN12ResourceMarkC2EP6Thread(ptr noundef nonnull align 8 dereferenceable(40) %3, ptr noundef %4)
  ret void
}

; Function Attrs: mustprogress nounwind uwtable
define linkonce_odr hidden noundef zeroext i1 @_ZN7LogImplILN6LogTag4typeE49ELS1_67ELS1_0ELS1_0ELS1_0ELS1_0EE8is_debugEv() #1 comdat align 2 {
  %1 = call noundef zeroext i1 @_ZN7LogImplILN6LogTag4typeE49ELS1_67ELS1_0ELS1_0ELS1_0ELS1_0EE8is_levelEN8LogLevel4typeE(i32 noundef 2)
  ret i1 %1
}

; Function Attrs: mustprogress nounwind uwtable
define linkonce_odr hidden void @_ZN7LogImplILN6LogTag4typeE49ELS1_67ELS1_0ELS1_0ELS1_0ELS1_0EEC2Ev(ptr noundef nonnull align 1 dereferenceable(1) %0) unnamed_addr #1 comdat align 2 {
  %2 = alloca ptr, align 8
  store ptr %0, ptr %2, align 8
  ret void
}

; Function Attrs: mustprogress nounwind uwtable
define hidden void @_ZN8GCLocker13log_debug_jniEPKc(ptr noundef %0) #1 align 2 {
  %2 = alloca ptr, align 8
  %3 = alloca %class.LogImpl, align 1
  %4 = alloca %class.ResourceMark, align 8
  store ptr %0, ptr %2, align 8
  call void @_ZN7LogImplILN6LogTag4typeE49ELS1_67ELS1_0ELS1_0ELS1_0ELS1_0EEC2Ev(ptr noundef nonnull align 1 dereferenceable(1) %3)
  %5 = call noundef zeroext i1 @_ZN7LogImplILN6LogTag4typeE49ELS1_67ELS1_0ELS1_0ELS1_0ELS1_0EE8is_debugEv()
  br i1 %5, label %6, label %15

6:                                                ; preds = %1
  call void @_ZN12ResourceMarkC2Ev(ptr noundef nonnull align 8 dereferenceable(40) %4)
  %7 = load ptr, ptr %2, align 8
  %8 = call noundef ptr @_ZN6Thread7currentEv()
  %9 = load ptr, ptr %8, align 8
  %10 = getelementptr inbounds ptr, ptr %9, i64 21
  %11 = load ptr, ptr %10, align 8
  %12 = call noundef ptr %11(ptr noundef nonnull align 8 dereferenceable(888) %8)
  %13 = load volatile i32, ptr @_ZN8GCLocker15_jni_lock_countE, align 4
  %14 = call noundef nonnull align 1 dereferenceable(1) ptr (ptr, ptr, ...) @_ZN7LogImplILN6LogTag4typeE49ELS1_67ELS1_0ELS1_0ELS1_0ELS1_0EE5debugEPKcz(ptr noundef nonnull align 1 dereferenceable(1) %3, ptr noundef @.str, ptr noundef %7, ptr noundef %12, i32 noundef %13)
  call void @_ZN12ResourceMarkD2Ev(ptr noundef nonnull align 8 dereferenceable(40) %4) #5
  br label %15

15:                                               ; preds = %6, %1
  ret void
}