; Function Attrs: mustprogress nounwind uwtable
define hidden void @_ZN8GCLocker13log_debug_jniEPKc(ptr noundef %0) local_unnamed_addr #0 align 2 {
  %2 = alloca %class.LogImpl, align 1
  %3 = load volatile ptr, ptr getelementptr inbounds (i8, ptr @_ZN16LogTagSetMappingILN6LogTag4typeE49ELS1_67ELS1_0ELS1_0ELS1_0ELS1_0EE7_tagsetE, i64 56), align 8
  %.not = icmp eq ptr %3, null
  br i1 %.not, label %_ZN12ResourceMarkD2Ev.exit, label %4

4:                                                ; preds = %1
  %5 = tail call align 8 ptr @llvm.threadlocal.address.p0(ptr align 8 @_ZN6Thread12_thr_currentE)
  %6 = load ptr, ptr %5, align 8
  %7 = getelementptr inbounds i8, ptr %6, i64 800
  %8 = load ptr, ptr %7, align 8
  %9 = getelementptr inbounds i8, ptr %8, i64 24
  %10 = load ptr, ptr %9, align 8
  %11 = getelementptr inbounds i8, ptr %8, i64 32
  %12 = load ptr, ptr %11, align 8
  %13 = getelementptr inbounds i8, ptr %8, i64 40
  %14 = load ptr, ptr %13, align 8
  %15 = getelementptr inbounds i8, ptr %8, i64 8
  %16 = load i64, ptr %15, align 8
  %17 = load ptr, ptr %6, align 8
  %18 = getelementptr inbounds i8, ptr %17, i64 168
  %19 = load ptr, ptr %18, align 8
  %20 = tail call noundef ptr %19(ptr noundef nonnull align 8 dereferenceable(888) %6) #8
  %21 = load volatile i32, ptr @_ZN8GCLocker15_jni_lock_countE, align 4
  %22 = call noundef nonnull align 1 dereferenceable(1) ptr (ptr, ptr, ...) @_ZN7LogImplILN6LogTag4typeE49ELS1_67ELS1_0ELS1_0ELS1_0ELS1_0EE5debugEPKcz(ptr noundef nonnull align 1 dereferenceable(1) %2, ptr noundef nonnull @.str, ptr noundef %0, ptr noundef %20, i32 noundef %21)
  %23 = load ptr, ptr %10, align 8
  %.not.i.i.i.i = icmp eq ptr %23, null
  br i1 %.not.i.i.i.i, label %25, label %24

24:                                               ; preds = %4
  call void @_ZN5Arena17set_size_in_bytesEm(ptr noundef nonnull align 8 dereferenceable(48) %8, i64 noundef %16) #8
  call void @_ZN5Chunk9next_chopEPS_(ptr noundef nonnull %10) #8
  br label %25

25:                                               ; preds = %24, %4
  %26 = load ptr, ptr %11, align 8
  %.not8.i.i.i.i = icmp eq ptr %26, %12
  br i1 %.not8.i.i.i.i, label %_ZN12ResourceMarkD2Ev.exit, label %27

27:                                               ; preds = %25
  store ptr %10, ptr %9, align 8
  store ptr %12, ptr %11, align 8
  store ptr %14, ptr %13, align 8
  br label %_ZN12ResourceMarkD2Ev.exit

_ZN12ResourceMarkD2Ev.exit:                       ; preds = %27, %25, %1
  ret void
}